; Function Attrs: mustprogress nofree norecurse nosync nounwind memory(readwrite, inaccessiblemem: none) uwtable
define void @_ZN2cv13dnn_objdetect9InferBbox20transform_bboxes_invEPSt6vectorIS2_IdSaIdEESaIS4_EES7_(ptr noundef nonnull readonly align 8 captures(none) dereferenceable(472) %0, ptr noundef readonly captures(none) %1, ptr noundef readonly captures(none) %2) local_unnamed_addr #8 align 2 {
  %4 = getelementptr inbounds nuw i8, ptr %0, i64 432
  %5 = load i64, ptr %4, align 8, !tbaa !43
  %.not = icmp eq i64 %5, 0
  br i1 %.not, label %._crit_edge, label %.lr.ph

.lr.ph:                                           ; preds = %3
  %6 = load ptr, ptr %1, align 8, !tbaa !49
  %7 = load ptr, ptr %2, align 8, !tbaa !49
  br label %8

._crit_edge:                                      ; preds = %8, %3
  ret void

8:                                                ; preds = %.lr.ph, %8
  %.026 = phi i64 [ 0, %.lr.ph ], [ %29, %8 ]
  %9 = getelementptr inbounds nuw %"class.std::vector.15", ptr %6, i64 %.026
  %10 = load ptr, ptr %9, align 8, !tbaa !50
  %11 = load double, ptr %10, align 8, !tbaa !58
  %12 = getelementptr inbounds nuw i8, ptr %10, i64 8
  %13 = load double, ptr %12, align 8, !tbaa !58
  %14 = getelementptr inbounds nuw i8, ptr %10, i64 16
  %15 = load double, ptr %14, align 8, !tbaa !58
  %16 = getelementptr inbounds nuw i8, ptr %10, i64 24
  %17 = load double, ptr %16, align 8, !tbaa !58
  %18 = fmul double %17, 5.000000e-01
  %19 = fsub double %11, %18
  %20 = getelementptr inbounds nuw %"class.std::vector.15", ptr %7, i64 %.026
  %21 = load ptr, ptr %20, align 8, !tbaa !50
  store double %19, ptr %21, align 8, !tbaa !58
  %22 = fmul double %15, 5.000000e-01
  %23 = fsub double %13, %22
  %24 = getelementptr inbounds nuw i8, ptr %21, i64 8
  store double %23, ptr %24, align 8, !tbaa !58
  %25 = fadd double %11, %18
  %26 = getelementptr inbounds nuw i8, ptr %21, i64 16
  store double %25, ptr %26, align 8, !tbaa !58
  %27 = fadd double %13, %22
  %28 = getelementptr inbounds nuw i8, ptr %21, i64 24
  store double %27, ptr %28, align 8, !tbaa !58
  %29 = add nuw i64 %.026, 1
  %exitcond.not = icmp eq i64 %29, %5
  br i1 %exitcond.not, label %._crit_edge, label %8, !llvm.loop !94
}